; Function Attrs: mustprogress nounwind uwtable
define dso_local void @_ZN4llvm9StackMaps16recordPatchPointERKNS_8MCSymbolERKNS_12MachineInstrE(ptr noundef nonnull align 8 dereferenceable(112) %0, ptr noundef nonnull align 8 dereferenceable(32) %1, ptr noundef nonnull align 8 dereferenceable(70) %2) local_unnamed_addr #0 align 2 {
  %4 = alloca %"class.llvm::PatchPointOpers", align 8
  call void @_ZN4llvm15PatchPointOpersC1EPKNS_12MachineInstrE(ptr noundef nonnull align 8 dereferenceable(9) %4, ptr noundef nonnull %2) #19
  %5 = load ptr, ptr %4, align 8
  %6 = getelementptr inbounds nuw i8, ptr %4, i64 8
  %7 = load i8, ptr %6, align 8
  %8 = and i8 %7, 1
  %9 = getelementptr inbounds nuw i8, ptr %5, i64 32
  %10 = load ptr, ptr %9, align 8
  %11 = zext nneg i8 %8 to i64
  %12 = getelementptr inbounds %"class.llvm::MachineOperand", ptr %10, i64 %11, i32 3
  %13 = load i64, ptr %12, align 8
  %14 = getelementptr inbounds nuw i8, ptr %2, i64 32
  %15 = load ptr, ptr %14, align 8
  %16 = or disjoint i8 %8, 4
  %17 = zext nneg i8 %16 to i64
  %18 = getelementptr inbounds %"class.llvm::MachineOperand", ptr %10, i64 %17, i32 3
  %19 = load i64, ptr %18, align 8
  %20 = and i64 %19, 4294967295
  %21 = icmp eq i64 %20, 13
  %narrow.i.i = add nuw nsw i8 %8, 5
  %22 = zext nneg i8 %narrow.i.i to i32
  br i1 %21, label %_ZNK4llvm15PatchPointOpers19getStackMapStartIdxEv.exit, label %23

23:                                               ; preds = %3
  %24 = getelementptr inbounds %"class.llvm::MachineOperand", ptr %10, i64 %11
  %25 = getelementptr inbounds i8, ptr %24, i64 112
  %26 = load i64, ptr %25, align 8
  %27 = trunc i64 %26 to i32
  %28 = add i32 %27, %22
  br label %_ZNK4llvm15PatchPointOpers19getStackMapStartIdxEv.exit

_ZNK4llvm15PatchPointOpers19getStackMapStartIdxEv.exit: ; preds = %3, %23
  %.0.i = phi i32 [ %28, %23 ], [ %22, %3 ]
  %29 = zext i32 %.0.i to i64
  %30 = getelementptr inbounds %"class.llvm::MachineOperand", ptr %15, i64 %29
  %31 = getelementptr inbounds nuw i8, ptr %2, i64 40
  %32 = load i24, ptr %31, align 8
  %33 = zext i24 %32 to i64
  %34 = getelementptr inbounds %"class.llvm::MachineOperand", ptr %15, i64 %33
  %35 = trunc i8 %7 to i1
  %36 = and i1 %21, %35
  call void @_ZN4llvm9StackMaps19recordStackMapOpersERKNS_8MCSymbolERKNS_12MachineInstrEmPKNS_14MachineOperandES9_b(ptr noundef nonnull align 8 dereferenceable(112) %0, ptr noundef nonnull align 8 dereferenceable(32) %1, ptr noundef nonnull align 8 dereferenceable(70) %2, i64 noundef %13, ptr noundef %30, ptr noundef %34, i1 noundef zeroext %36)
  ret void
}